target datalayout = "e-m:e-p270:32:32-p271:32:32-p272:64:64-i64:64-i128:128-f80:128-n8:16:32:64-S128"
target triple = "x86_64-pc-linux-gnu"

%struct.Abc_Obj_t_ = type { ptr, ptr, i32, i32, %struct.Vec_Int_t_, %struct.Vec_Int_t_, %union.anon.1, %union.anon.2 }
%struct.Vec_Int_t_ = type { i32, i32, ptr }
%union.anon.1 = type { ptr }
%union.anon.2 = type { ptr }
%struct.Abc_Ntk_t_ = type { i32, i32, ptr, ptr, ptr, ptr, ptr, ptr, ptr, ptr, ptr, ptr, ptr, [11 x i32], i32, i32, i32, i32, ptr, i32, ptr, ptr, i32, i32, i32, double, i32, %struct.Vec_Int_t_, ptr, ptr, ptr, ptr, ptr, float, i32, ptr, ptr, ptr, ptr, ptr, ptr, ptr, ptr, ptr, ptr, ptr, ptr, ptr, ptr, ptr, ptr, ptr, ptr, ptr, ptr, ptr }
%struct.Vec_Ptr_t_ = type { i32, i32, ptr }

; Function Attrs: nounwind uwtable
define internal ptr @Abc_ObjFanin(ptr noundef %0, i32 noundef %1) #0 {
  %3 = alloca ptr, align 8
  %4 = alloca i32, align 4
  store ptr %0, ptr %3, align 8
  store i32 %1, ptr %4, align 4
  %5 = load ptr, ptr %3, align 8
  %6 = getelementptr inbounds %struct.Abc_Obj_t_, ptr %5, i32 0, i32 0
  %7 = load ptr, ptr %6, align 8
  %8 = getelementptr inbounds %struct.Abc_Ntk_t_, ptr %7, i32 0, i32 5
  %9 = load ptr, ptr %8, align 8
  %10 = getelementptr inbounds %struct.Vec_Ptr_t_, ptr %9, i32 0, i32 2
  %11 = load ptr, ptr %10, align 8
  %12 = load ptr, ptr %3, align 8
  %13 = getelementptr inbounds %struct.Abc_Obj_t_, ptr %12, i32 0, i32 4
  %14 = getelementptr inbounds %struct.Vec_Int_t_, ptr %13, i32 0, i32 2
  %15 = load ptr, ptr %14, align 8
  %16 = load i32, ptr %4, align 4
  %17 = sext i32 %16 to i64
  %18 = getelementptr inbounds i32, ptr %15, i64 %17
  %19 = load i32, ptr %18, align 4
  %20 = sext i32 %19 to i64
  %21 = getelementptr inbounds ptr, ptr %11, i64 %20
  %22 = load ptr, ptr %21, align 8
  ret ptr %22
}

; Function Attrs: nounwind uwtable
define internal i32 @Abc_ObjFaninNum(ptr noundef %0) #0 {
  %2 = alloca ptr, align 8
  store ptr %0, ptr %2, align 8
  %3 = load ptr, ptr %2, align 8
  %4 = getelementptr inbounds %struct.Abc_Obj_t_, ptr %3, i32 0, i32 4
  %5 = getelementptr inbounds %struct.Vec_Int_t_, ptr %4, i32 0, i32 1
  %6 = load i32, ptr %5, align 4
  ret i32 %6
}

; Function Attrs: nounwind uwtable
define ptr @Gia_ManInsertOne_rec(ptr noundef %0, ptr noundef %1, ptr noundef %2) #0 {
  %4 = alloca ptr, align 8
  %5 = alloca ptr, align 8
  %6 = alloca ptr, align 8
  %7 = alloca ptr, align 8
  %8 = alloca ptr, align 8
  %9 = alloca i32, align 4
  store ptr %0, ptr %5, align 8
  store ptr %1, ptr %6, align 8
  store ptr %2, ptr %7, align 8
  %10 = load ptr, ptr %7, align 8
  %11 = icmp eq ptr %10, null
  br i1 %11, label %12, label %15

12:                                               ; preds = %3
  %13 = load ptr, ptr %5, align 8
  %14 = call ptr @Abc_NtkCreateNodeConst0(ptr noundef %13)
  store ptr %14, ptr %4, align 8
  br label %71

15:                                               ; preds = %3
  %16 = load ptr, ptr %7, align 8
  %17 = getelementptr inbounds %struct.Abc_Obj_t_, ptr %16, i32 0, i32 7
  %18 = load ptr, ptr %17, align 8
  %19 = icmp ne ptr %18, null
  br i1 %19, label %20, label %24

20:                                               ; preds = %15
  %21 = load ptr, ptr %7, align 8
  %22 = getelementptr inbounds %struct.Abc_Obj_t_, ptr %21, i32 0, i32 7
  %23 = load ptr, ptr %22, align 8
  store ptr %23, ptr %4, align 8
  br label %71

24:                                               ; preds = %15
  store i32 0, ptr %9, align 4
  br label %25

25:                                               ; preds = %41, %24
  %26 = load i32, ptr %9, align 4
  %27 = load ptr, ptr %7, align 8
  %28 = call i32 @Abc_ObjFaninNum(ptr noundef %27)
  %29 = icmp slt i32 %26, %28
  br i1 %29, label %30, label %34

30:                                               ; preds = %25
  %31 = load ptr, ptr %7, align 8
  %32 = load i32, ptr %9, align 4
  %33 = call ptr @Abc_ObjFanin(ptr noundef %31, i32 noundef %32)
  store ptr %33, ptr %8, align 8
  br label %34

34:                                               ; preds = %30, %25
  %35 = phi i1 [ false, %25 ], [ true, %30 ]
  br i1 %35, label %36, label %44

36:                                               ; preds = %34
  %37 = load ptr, ptr %5, align 8
  %38 = load ptr, ptr %6, align 8
  %39 = load ptr, ptr %8, align 8
  %40 = call ptr @Gia_ManInsertOne_rec(ptr noundef %37, ptr noundef %38, ptr noundef %39)
  br label %41

41:                                               ; preds = %36
  %42 = load i32, ptr %9, align 4
  %43 = add nsw i32 %42, 1
  store i32 %43, ptr %9, align 4
  br label %25, !llvm.loop !32

44:                                               ; preds = %34
  %45 = load ptr, ptr %5, align 8
  %46 = load ptr, ptr %7, align 8
  %47 = call ptr @Abc_NtkDupObj(ptr noundef %45, ptr noundef %46, i32 noundef 0)
  %48 = load ptr, ptr %7, align 8
  %49 = getelementptr inbounds %struct.Abc_Obj_t_, ptr %48, i32 0, i32 7
  store ptr %47, ptr %49, align 8
  store i32 0, ptr %9, align 4
  br label %50

50:                                               ; preds = %64, %44
  %51 = load i32, ptr %9, align 4
  %52 = load ptr, ptr %7, align 8
  %53 = call i32 @Abc_ObjFaninNum(ptr noundef %52)
  %54 = icmp slt i32 %51, %53
  br i1 %54, label %55, label %59

55:                                               ; preds = %50
  %56 = load ptr, ptr %7, align 8
  %57 = load i32, ptr %9, align 4
  %58 = call ptr @Abc_ObjFanin(ptr noundef %56, i32 noundef %57)
  store ptr %58, ptr %8, align 8
  br label %59

59:                                               ; preds = %55, %50
  %60 = phi i1 [ false, %50 ], [ true, %55 ]
  br i1 %60, label %61, label %67

61:                                               ; preds = %59
  %62 = load ptr, ptr %7, align 8
  %63 = load ptr, ptr %8, align 8
  call void @Abc_ObjAddFanin(ptr noundef %62, ptr noundef %63)
  br label %64

64:                                               ; preds = %61
  %65 = load i32, ptr %9, align 4
  %66 = add nsw i32 %65, 1
  store i32 %66, ptr %9, align 4
  br label %50, !llvm.loop !33

67:                                               ; preds = %59
  %68 = load ptr, ptr %7, align 8
  %69 = getelementptr inbounds %struct.Abc_Obj_t_, ptr %68, i32 0, i32 7
  %70 = load ptr, ptr %69, align 8
  store ptr %70, ptr %4, align 8
  br label %71

71:                                               ; preds = %67, %20, %12
  %72 = load ptr, ptr %4, align 8
  ret ptr %72
}