; Function Attrs: nounwind uwtable
define ptr @Gia_ManInsertOne_rec(ptr noundef %0, ptr noundef readnone captures(none) %1, ptr noundef %2) local_unnamed_addr #0 {
  %4 = icmp eq ptr %2, null
  br i1 %4, label %5, label %7

5:                                                ; preds = %3
  %6 = tail call ptr @Abc_NtkCreateNodeConst0(ptr noundef %0) #13
  br label %.critedge2

7:                                                ; preds = %3
  %8 = getelementptr inbounds nuw i8, ptr %2, i64 64
  %9 = load ptr, ptr %8, align 8
  %.not = icmp eq ptr %9, null
  br i1 %.not, label %.preheader, label %.critedge2

.preheader:                                       ; preds = %7
  %10 = getelementptr i8, ptr %2, i64 28
  %.val2833 = load i32, ptr %10, align 4
  %11 = icmp sgt i32 %.val2833, 0
  br i1 %11, label %.lr.ph, label %.critedge

.lr.ph:                                           ; preds = %.preheader
  %12 = getelementptr i8, ptr %2, i64 32
  br label %13

13:                                               ; preds = %.lr.ph, %13
  %indvars.iv = phi i64 [ 0, %.lr.ph ], [ %indvars.iv.next, %13 ]
  %.val31 = load ptr, ptr %2, align 8
  %.val32 = load ptr, ptr %12, align 8
  %14 = getelementptr i8, ptr %.val31, i64 32
  %.val31.val = load ptr, ptr %14, align 8
  %15 = getelementptr i8, ptr %.val31.val, i64 8
  %.val31.val.val = load ptr, ptr %15, align 8
  %16 = getelementptr inbounds nuw i32, ptr %.val32, i64 %indvars.iv
  %17 = load i32, ptr %16, align 4
  %18 = sext i32 %17 to i64
  %19 = getelementptr inbounds ptr, ptr %.val31.val.val, i64 %18
  %20 = load ptr, ptr %19, align 8
  %21 = tail call ptr @Gia_ManInsertOne_rec(ptr noundef %0, ptr noundef %1, ptr noundef %20)
  %indvars.iv.next = add nuw nsw i64 %indvars.iv, 1
  %.val28 = load i32, ptr %10, align 4
  %22 = sext i32 %.val28 to i64
  %23 = icmp slt i64 %indvars.iv.next, %22
  br i1 %23, label %13, label %.critedge, !llvm.loop !31

.critedge:                                        ; preds = %13, %.preheader
  %24 = tail call ptr @Abc_NtkDupObj(ptr noundef %0, ptr noundef nonnull %2, i32 noundef 0) #13
  store ptr %24, ptr %8, align 8
  %.val35 = load i32, ptr %10, align 4
  %25 = icmp sgt i32 %.val35, 0
  br i1 %25, label %.lr.ph37, label %.critedge2

.lr.ph37:                                         ; preds = %.critedge
  %26 = getelementptr i8, ptr %2, i64 32
  br label %27

27:                                               ; preds = %.lr.ph37, %27
  %indvars.iv39 = phi i64 [ 0, %.lr.ph37 ], [ %indvars.iv.next40, %27 ]
  %.val29 = load ptr, ptr %2, align 8
  %.val30 = load ptr, ptr %26, align 8
  %28 = getelementptr i8, ptr %.val29, i64 32
  %.val29.val = load ptr, ptr %28, align 8
  %29 = getelementptr i8, ptr %.val29.val, i64 8
  %.val29.val.val = load ptr, ptr %29, align 8
  %30 = getelementptr inbounds nuw i32, ptr %.val30, i64 %indvars.iv39
  %31 = load i32, ptr %30, align 4
  %32 = sext i32 %31 to i64
  %33 = getelementptr inbounds ptr, ptr %.val29.val.val, i64 %32
  %34 = load ptr, ptr %33, align 8
  tail call void @Abc_ObjAddFanin(ptr noundef nonnull %2, ptr noundef %34) #13
  %indvars.iv.next40 = add nuw nsw i64 %indvars.iv39, 1
  %.val = load i32, ptr %10, align 4
  %35 = sext i32 %.val to i64
  %36 = icmp slt i64 %indvars.iv.next40, %35
  br i1 %36, label %27, label %.critedge2.loopexit, !llvm.loop !32

.critedge2.loopexit:                              ; preds = %27
  %.pre = load ptr, ptr %8, align 8
  br label %.critedge2

.critedge2:                                       ; preds = %.critedge, %.critedge2.loopexit, %7, %5
  %.025 = phi ptr [ %6, %5 ], [ %9, %7 ], [ %.pre, %.critedge2.loopexit ], [ %24, %.critedge ]
  ret ptr %.025
}